(lp1
(itrac
form
p2
(dp3
S'chunkp'
p4
I0
sS'name'
p5
S'fact'
p6
sS'formlist'
p7
(lp8
(itrac
textchunk
p9
(dp10
S'text'
p11
S'#(eq,'
p12
sS'pointer'
p13
I0
sba(itrac
gapchunk
p14
(dp15
g13
I-1
sS'gapno'
p16
I0
sba(itrac
textchunk
p17
(dp18
g11
S',0,1,(#(ml,'
p19
sg13
I-1
sbag14
a(itrac
textchunk
p20
(dp21
g11
S',#(fact,#(su,'
p22
sg13
I-1
sbag14
a(itrac
textchunk
p23
(dp24
g11
S',1)))))'
p25
sg13
I-1
sba(itrac
endchunk
p26
(dp27
g13
I-1
sbasba.